target datalayout = "e-m:e-p270:32:32-p271:32:32-p272:64:64-i64:64-i128:128-f80:128-n8:16:32:64-S128"
target triple = "x86_64-pc-linux-gnu"

%"class.std::__cxx11::basic_string" = type { %"struct.std::__cxx11::basic_string<char>::_Alloc_hider", i64, %union.anon }
%"struct.std::__cxx11::basic_string<char>::_Alloc_hider" = type { ptr }
%union.anon = type { i64, [8 x i8] }

@_ZL17creds_path_getterB5cxx11 = internal global ptr null, align 8

; Function Attrs: mustprogress uwtable
define void @_Z48grpc_get_well_known_google_credentials_file_pathB5cxx11v(ptr dead_on_unwind noalias writable sret(%"class.std::__cxx11::basic_string") align 8 %0) #4 {
  %2 = alloca ptr, align 8
  store ptr %0, ptr %2, align 8
  %3 = load ptr, ptr @_ZL17creds_path_getterB5cxx11, align 8, !tbaa !97
  %4 = icmp ne ptr %3, null
  br i1 %4, label %5, label %7

5:                                                ; preds = %1
  %6 = load ptr, ptr @_ZL17creds_path_getterB5cxx11, align 8, !tbaa !97
  call void %6(ptr dead_on_unwind writable sret(%"class.std::__cxx11::basic_string") align 8 %0)
  br label %8

7:                                                ; preds = %1
  call void @_Z53grpc_get_well_known_google_credentials_file_path_implB5cxx11v(ptr dead_on_unwind writable sret(%"class.std::__cxx11::basic_string") align 8 %0)
  br label %8

8:                                                ; preds = %7, %5
  ret void
}