; Function Attrs: mustprogress uwtable
define void @_Z48grpc_get_well_known_google_credentials_file_pathB5cxx11v(ptr dead_on_unwind noalias writable sret(%"class.std::__cxx11::basic_string") align 8 %0) local_unnamed_addr #3 {
  %2 = load ptr, ptr @_ZL17creds_path_getterB5cxx11, align 8, !tbaa !66
  %.not = icmp eq ptr %2, null
  br i1 %.not, label %4, label %3

3:                                                ; preds = %1
  tail call void %2(ptr dead_on_unwind writable sret(%"class.std::__cxx11::basic_string") align 8 %0)
  br label %5

4:                                                ; preds = %1
  tail call void @_Z53grpc_get_well_known_google_credentials_file_path_implB5cxx11v(ptr dead_on_unwind writable sret(%"class.std::__cxx11::basic_string") align 8 %0)
  br label %5

5:                                                ; preds = %4, %3
  ret void
}